target datalayout = "e-m:e-p270:32:32-p271:32:32-p272:64:64-i64:64-i128:128-f80:128-n8:16:32:64-S128"
target triple = "x86_64-pc-linux-gnu"

%struct.record_functions_st = type { ptr, ptr, ptr, ptr, ptr, ptr, ptr, ptr, ptr, ptr, ptr, ptr, ptr, ptr, ptr, ptr, ptr, ptr }
%struct.ossl_record_layer_st = type { ptr, ptr, i32, i32, i32, i32, i32, ptr, i16, ptr, ptr, ptr, i64, i32, [33 x %struct.tls_buffer_st], i64, i64, %struct.tls_buffer_st, [32 x %struct.tls_rl_record_st], i64, i64, i64, i32, ptr, i64, [8 x i8], i32, i32, i64, i32, ptr, ptr, i64, ptr, ptr, i32, i32, i32, i64, i64, i64, [64 x i8], i32, i32, i32, ptr, ptr, i32, i32, i64, ptr, ptr, %struct.dtls_bitmap_st, %struct.dtls_bitmap_st, i32, ptr, ptr, ptr, ptr, ptr, i64, ptr }
%struct.tls_buffer_st = type { ptr, i64, i64, i64, i64, i32, i32 }
%struct.tls_rl_record_st = type { i32, i32, i64, i64, i64, ptr, ptr, ptr, i16, [8 x i8] }
%struct.dtls_bitmap_st = type { i64, [8 x i8] }

@.str = private unnamed_addr constant [42 x i8] c"../openssl/ssl/record/methods/dtls_meth.c\00", align 1
@__func__.dtls_new_record_layer = private unnamed_addr constant [22 x i8] c"dtls_new_record_layer\00", align 1
@dtls_any_funcs = external constant %struct.record_functions_st, align 8
@dtls_1_funcs = external constant %struct.record_functions_st, align 8

; Function Attrs: nounwind uwtable
define internal i32 @dtls_new_record_layer(ptr noundef %0, ptr noundef %1, i32 noundef %2, i32 noundef %3, i32 noundef %4, i32 noundef %5, i16 noundef zeroext %6, ptr noundef %7, i64 noundef %8, ptr noundef %9, i64 noundef %10, ptr noundef %11, i64 noundef %12, ptr noundef %13, i64 noundef %14, ptr noundef %15, i64 noundef %16, i32 noundef %17, ptr noundef %18, ptr noundef %19, ptr noundef %20, ptr noundef %21, ptr noundef %22, ptr noundef %23, ptr noundef %24, ptr noundef %25, ptr noundef %26, ptr noundef %27, ptr noundef %28, ptr noundef %29, ptr noundef %30, ptr noundef %31) #0 {
  %33 = alloca i32, align 4
  %34 = alloca ptr, align 8
  %35 = alloca ptr, align 8
  %36 = alloca i32, align 4
  %37 = alloca i32, align 4
  %38 = alloca i32, align 4
  %39 = alloca i32, align 4
  %40 = alloca i16, align 2
  %41 = alloca ptr, align 8
  %42 = alloca i64, align 8
  %43 = alloca ptr, align 8
  %44 = alloca i64, align 8
  %45 = alloca ptr, align 8
  %46 = alloca i64, align 8
  %47 = alloca ptr, align 8
  %48 = alloca i64, align 8
  %49 = alloca ptr, align 8
  %50 = alloca i64, align 8
  %51 = alloca i32, align 4
  %52 = alloca ptr, align 8
  %53 = alloca ptr, align 8
  %54 = alloca ptr, align 8
  %55 = alloca ptr, align 8
  %56 = alloca ptr, align 8
  %57 = alloca ptr, align 8
  %58 = alloca ptr, align 8
  %59 = alloca ptr, align 8
  %60 = alloca ptr, align 8
  %61 = alloca ptr, align 8
  %62 = alloca ptr, align 8
  %63 = alloca ptr, align 8
  %64 = alloca ptr, align 8
  %65 = alloca ptr, align 8
  %66 = alloca i32, align 4
  %67 = alloca i32, align 4
  store ptr %0, ptr %34, align 8, !tbaa !98
  store ptr %1, ptr %35, align 8, !tbaa !8
  store i32 %2, ptr %36, align 4, !tbaa !38
  store i32 %3, ptr %37, align 4, !tbaa !38
  store i32 %4, ptr %38, align 4, !tbaa !38
  store i32 %5, ptr %39, align 4, !tbaa !38
  store i16 %6, ptr %40, align 2, !tbaa !99
  store ptr %7, ptr %41, align 8, !tbaa !8
  store i64 %8, ptr %42, align 8, !tbaa !51
  store ptr %9, ptr %43, align 8, !tbaa !8
  store i64 %10, ptr %44, align 8, !tbaa !51
  store ptr %11, ptr %45, align 8, !tbaa !8
  store i64 %12, ptr %46, align 8, !tbaa !51
  store ptr %13, ptr %47, align 8, !tbaa !8
  store i64 %14, ptr %48, align 8, !tbaa !51
  store ptr %15, ptr %49, align 8, !tbaa !100
  store i64 %16, ptr %50, align 8, !tbaa !51
  store i32 %17, ptr %51, align 4, !tbaa !38
  store ptr %18, ptr %52, align 8, !tbaa !77
  store ptr %19, ptr %53, align 8, !tbaa !102
  store ptr %20, ptr %54, align 8, !tbaa !77
  store ptr %21, ptr %55, align 8, !tbaa !81
  store ptr %22, ptr %56, align 8, !tbaa !81
  store ptr %23, ptr %57, align 8, !tbaa !81
  store ptr %24, ptr %58, align 8, !tbaa !104
  store ptr %25, ptr %59, align 8, !tbaa !104
  store ptr %26, ptr %60, align 8, !tbaa !106
  store ptr %27, ptr %61, align 8, !tbaa !106
  store ptr %28, ptr %62, align 8, !tbaa !108
  store ptr %29, ptr %63, align 8, !tbaa !110
  store ptr %30, ptr %64, align 8, !tbaa !110
  store ptr %31, ptr %65, align 8, !tbaa !111
  call void @llvm.lifetime.start.p0(i64 4, ptr %66) #6
  %68 = load ptr, ptr %34, align 8, !tbaa !98
  %69 = load ptr, ptr %35, align 8, !tbaa !8
  %70 = load i32, ptr %36, align 4, !tbaa !38
  %71 = load i32, ptr %37, align 4, !tbaa !38
  %72 = load i32, ptr %38, align 4, !tbaa !38
  %73 = load i32, ptr %39, align 4, !tbaa !38
  %74 = load ptr, ptr %49, align 8, !tbaa !100
  %75 = load i64, ptr %50, align 8, !tbaa !51
  %76 = load ptr, ptr %52, align 8, !tbaa !77
  %77 = load ptr, ptr %53, align 8, !tbaa !102
  %78 = load ptr, ptr %55, align 8, !tbaa !81
  %79 = load ptr, ptr %56, align 8, !tbaa !81
  %80 = load ptr, ptr %57, align 8, !tbaa !81
  %81 = load ptr, ptr %60, align 8, !tbaa !106
  %82 = load ptr, ptr %61, align 8, !tbaa !106
  %83 = load ptr, ptr %62, align 8, !tbaa !108
  %84 = load ptr, ptr %63, align 8, !tbaa !110
  %85 = load ptr, ptr %65, align 8, !tbaa !111
  %86 = call i32 @tls_int_new_record_layer(ptr noundef %68, ptr noundef %69, i32 noundef %70, i32 noundef %71, i32 noundef %72, i32 noundef %73, ptr noundef %74, i64 noundef %75, ptr noundef %76, ptr noundef %77, ptr noundef %78, ptr noundef %79, ptr noundef %80, ptr noundef %81, ptr noundef %82, ptr noundef %83, ptr noundef %84, ptr noundef %85)
  store i32 %86, ptr %66, align 4, !tbaa !38
  %87 = load i32, ptr %66, align 4, !tbaa !38
  %88 = icmp ne i32 %87, 1
  br i1 %88, label %89, label %91

89:                                               ; preds = %32
  %90 = load i32, ptr %66, align 4, !tbaa !38
  store i32 %90, ptr %33, align 4
  store i32 1, ptr %67, align 4
  br label %169

91:                                               ; preds = %32
  %92 = call ptr @pqueue_new()
  %93 = load ptr, ptr %65, align 8, !tbaa !111
  %94 = load ptr, ptr %93, align 8, !tbaa !3
  %95 = getelementptr inbounds nuw %struct.ossl_record_layer_st, ptr %94, i32 0, i32 50
  store ptr %92, ptr %95, align 8, !tbaa !56
  %96 = call ptr @pqueue_new()
  %97 = load ptr, ptr %65, align 8, !tbaa !111
  %98 = load ptr, ptr %97, align 8, !tbaa !3
  %99 = getelementptr inbounds nuw %struct.ossl_record_layer_st, ptr %98, i32 0, i32 51
  store ptr %96, ptr %99, align 8, !tbaa !31
  %100 = load ptr, ptr %65, align 8, !tbaa !111
  %101 = load ptr, ptr %100, align 8, !tbaa !3
  %102 = getelementptr inbounds nuw %struct.ossl_record_layer_st, ptr %101, i32 0, i32 50
  %103 = load ptr, ptr %102, align 8, !tbaa !56
  %104 = icmp eq ptr %103, null
  br i1 %104, label %111, label %105

105:                                              ; preds = %91
  %106 = load ptr, ptr %65, align 8, !tbaa !111
  %107 = load ptr, ptr %106, align 8, !tbaa !3
  %108 = getelementptr inbounds nuw %struct.ossl_record_layer_st, ptr %107, i32 0, i32 51
  %109 = load ptr, ptr %108, align 8, !tbaa !31
  %110 = icmp eq ptr %109, null
  br i1 %110, label %111, label %116

111:                                              ; preds = %105, %91
  %112 = load ptr, ptr %65, align 8, !tbaa !111
  %113 = load ptr, ptr %112, align 8, !tbaa !3
  %114 = call i32 @dtls_free(ptr noundef %113)
  %115 = load ptr, ptr %65, align 8, !tbaa !111
  store ptr null, ptr %115, align 8, !tbaa !3
  call void @ERR_new()
  call void @ERR_set_debug(ptr noundef @.str, i32 noundef 656, ptr noundef @__func__.dtls_new_record_layer)
  call void (i32, i32, ptr, ...) @ERR_set_error(i32 noundef 20, i32 noundef 524308, ptr noundef null)
  store i32 -2, ptr %33, align 4
  store i32 1, ptr %67, align 4
  br label %169

116:                                              ; preds = %105
  %117 = load ptr, ptr %65, align 8, !tbaa !111
  %118 = load ptr, ptr %117, align 8, !tbaa !3
  %119 = getelementptr inbounds nuw %struct.ossl_record_layer_st, ptr %118, i32 0, i32 2
  store i32 1, ptr %119, align 8, !tbaa !113
  %120 = load i16, ptr %40, align 2, !tbaa !99
  %121 = load ptr, ptr %65, align 8, !tbaa !111
  %122 = load ptr, ptr %121, align 8, !tbaa !3
  %123 = getelementptr inbounds nuw %struct.ossl_record_layer_st, ptr %122, i32 0, i32 8
  store i16 %120, ptr %123, align 8, !tbaa !65
  %124 = load ptr, ptr %65, align 8, !tbaa !111
  %125 = load ptr, ptr %124, align 8, !tbaa !3
  %126 = getelementptr inbounds nuw %struct.ossl_record_layer_st, ptr %125, i32 0, i32 54
  store i32 1, ptr %126, align 8, !tbaa !55
  %127 = load i32, ptr %36, align 4, !tbaa !38
  switch i32 %127, label %136 [
    i32 131071, label %128
    i32 65277, label %132
    i32 65279, label %132
    i32 256, label %132
  ]

128:                                              ; preds = %116
  %129 = load ptr, ptr %65, align 8, !tbaa !111
  %130 = load ptr, ptr %129, align 8, !tbaa !3
  %131 = getelementptr inbounds nuw %struct.ossl_record_layer_st, ptr %130, i32 0, i32 61
  store ptr @dtls_any_funcs, ptr %131, align 8, !tbaa !34
  br label %137

132:                                              ; preds = %116, %116, %116
  %133 = load ptr, ptr %65, align 8, !tbaa !111
  %134 = load ptr, ptr %133, align 8, !tbaa !3
  %135 = getelementptr inbounds nuw %struct.ossl_record_layer_st, ptr %134, i32 0, i32 61
  store ptr @dtls_1_funcs, ptr %135, align 8, !tbaa !34
  br label %137

136:                                              ; preds = %116
  call void @ERR_new()
  call void @ERR_set_debug(ptr noundef @.str, i32 noundef 675, ptr noundef @__func__.dtls_new_record_layer)
  call void (i32, i32, ptr, ...) @ERR_set_error(i32 noundef 20, i32 noundef 786691, ptr noundef null)
  store i32 -2, ptr %66, align 4, !tbaa !38
  br label %159

137:                                              ; preds = %132, %128
  %138 = load ptr, ptr %65, align 8, !tbaa !111
  %139 = load ptr, ptr %138, align 8, !tbaa !3
  %140 = getelementptr inbounds nuw %struct.ossl_record_layer_st, ptr %139, i32 0, i32 61
  %141 = load ptr, ptr %140, align 8, !tbaa !34
  %142 = getelementptr inbounds nuw %struct.record_functions_st, ptr %141, i32 0, i32 0
  %143 = load ptr, ptr %142, align 8, !tbaa !114
  %144 = load ptr, ptr %65, align 8, !tbaa !111
  %145 = load ptr, ptr %144, align 8, !tbaa !3
  %146 = load i32, ptr %39, align 4, !tbaa !38
  %147 = load ptr, ptr %43, align 8, !tbaa !8
  %148 = load i64, ptr %44, align 8, !tbaa !51
  %149 = load ptr, ptr %45, align 8, !tbaa !8
  %150 = load i64, ptr %46, align 8, !tbaa !51
  %151 = load ptr, ptr %47, align 8, !tbaa !8
  %152 = load i64, ptr %48, align 8, !tbaa !51
  %153 = load ptr, ptr %49, align 8, !tbaa !100
  %154 = load i64, ptr %50, align 8, !tbaa !51
  %155 = load i32, ptr %51, align 4, !tbaa !38
  %156 = load ptr, ptr %52, align 8, !tbaa !77
  %157 = load ptr, ptr %53, align 8, !tbaa !102
  %158 = call i32 %143(ptr noundef %145, i32 noundef %146, ptr noundef %147, i64 noundef %148, ptr noundef %149, i64 noundef %150, ptr noundef %151, i64 noundef %152, ptr noundef %153, i64 noundef %154, i32 noundef %155, ptr noundef %156, ptr noundef %157)
  store i32 %158, ptr %66, align 4, !tbaa !38
  br label %159

159:                                              ; preds = %137, %136
  %160 = load i32, ptr %66, align 4, !tbaa !38
  %161 = icmp ne i32 %160, 1
  br i1 %161, label %162, label %167

162:                                              ; preds = %159
  %163 = load ptr, ptr %65, align 8, !tbaa !111
  %164 = load ptr, ptr %163, align 8, !tbaa !3
  %165 = call i32 @dtls_free(ptr noundef %164)
  %166 = load ptr, ptr %65, align 8, !tbaa !111
  store ptr null, ptr %166, align 8, !tbaa !3
  br label %167

167:                                              ; preds = %162, %159
  %168 = load i32, ptr %66, align 4, !tbaa !38
  store i32 %168, ptr %33, align 4
  store i32 1, ptr %67, align 4
  br label %169

169:                                              ; preds = %167, %111, %89
  call void @llvm.lifetime.end.p0(i64 4, ptr %66) #6
  %170 = load i32, ptr %33, align 4
  ret i32 %170
}