; Function Attrs: nounwind uwtable
define internal i32 @dtls_new_record_layer(ptr noundef %0, ptr noundef %1, i32 noundef %2, i32 noundef %3, i32 noundef %4, i32 noundef %5, i16 noundef zeroext %6, ptr readnone captures(none) %7, i64 %8, ptr noundef %9, i64 noundef %10, ptr noundef %11, i64 noundef %12, ptr noundef %13, i64 noundef %14, ptr noundef %15, i64 noundef %16, i32 noundef %17, ptr noundef %18, ptr noundef %19, ptr readnone captures(none) %20, ptr noundef %21, ptr noundef %22, ptr noundef %23, ptr readnone captures(none) %24, ptr readnone captures(none) %25, ptr noundef %26, ptr noundef %27, ptr noundef %28, ptr noundef %29, ptr readnone captures(none) %30, ptr noundef %31) #0 {
  %33 = tail call i32 @tls_int_new_record_layer(ptr noundef %0, ptr noundef %1, i32 noundef %2, i32 noundef %3, i32 noundef %4, i32 noundef %5, ptr noundef %15, i64 noundef %16, ptr noundef %18, ptr noundef %19, ptr noundef %21, ptr noundef %22, ptr noundef %23, ptr noundef %26, ptr noundef %27, ptr noundef %28, ptr noundef %29, ptr noundef %31) #7
  %.not = icmp eq i32 %33, 1
  br i1 %.not, label %34, label %59

34:                                               ; preds = %32
  %35 = tail call ptr @pqueue_new() #7
  %36 = load ptr, ptr %31, align 8, !tbaa !75
  %37 = getelementptr inbounds nuw i8, ptr %36, i64 4320
  store ptr %35, ptr %37, align 8, !tbaa !53
  %38 = tail call ptr @pqueue_new() #7
  %39 = load ptr, ptr %31, align 8, !tbaa !75
  %40 = getelementptr inbounds nuw i8, ptr %39, i64 4328
  store ptr %38, ptr %40, align 8, !tbaa !23
  %41 = getelementptr inbounds nuw i8, ptr %39, i64 4320
  %42 = load ptr, ptr %41, align 8, !tbaa !53
  %43 = icmp eq ptr %42, null
  %44 = icmp eq ptr %38, null
  %or.cond = select i1 %43, i1 true, i1 %44
  br i1 %or.cond, label %45, label %47

45:                                               ; preds = %34
  %46 = tail call i32 @dtls_free(ptr noundef nonnull %39)
  store ptr null, ptr %31, align 8, !tbaa !75
  tail call void @ERR_new() #7
  tail call void @ERR_set_debug(ptr noundef nonnull @.str, i32 noundef 656, ptr noundef nonnull @__func__.dtls_new_record_layer) #7
  tail call void (i32, i32, ptr, ...) @ERR_set_error(i32 noundef 20, i32 noundef 524308, ptr noundef null) #7
  br label %59

47:                                               ; preds = %34
  %48 = getelementptr inbounds nuw i8, ptr %39, i64 16
  store i32 1, ptr %48, align 8, !tbaa !77
  %49 = getelementptr inbounds nuw i8, ptr %39, i64 48
  store i16 %6, ptr %49, align 8, !tbaa !50
  %50 = getelementptr inbounds nuw i8, ptr %39, i64 4368
  store i32 1, ptr %50, align 8, !tbaa !52
  switch i32 %2, label %.thread [
    i32 131071, label %52
    i32 65277, label %51
    i32 65279, label %51
    i32 256, label %51
  ]

51:                                               ; preds = %47, %47, %47
  br label %52

.thread:                                          ; preds = %47
  tail call void @ERR_new() #7
  tail call void @ERR_set_debug(ptr noundef nonnull @.str, i32 noundef 675, ptr noundef nonnull @__func__.dtls_new_record_layer) #7
  tail call void (i32, i32, ptr, ...) @ERR_set_error(i32 noundef 20, i32 noundef 786691, ptr noundef null) #7
  br label %56

52:                                               ; preds = %47, %51
  %dtls_any_funcs.sink = phi ptr [ @dtls_1_funcs, %51 ], [ @dtls_any_funcs, %47 ]
  %53 = getelementptr inbounds nuw i8, ptr %39, i64 4424
  store ptr %dtls_any_funcs.sink, ptr %53, align 8, !tbaa !36
  %54 = load ptr, ptr %dtls_any_funcs.sink, align 8, !tbaa !78
  %55 = tail call i32 %54(ptr noundef nonnull %39, i32 noundef %5, ptr noundef %9, i64 noundef %10, ptr noundef %11, i64 noundef %12, ptr noundef %13, i64 noundef %14, ptr noundef %15, i64 noundef %16, i32 noundef %17, ptr noundef %18, ptr noundef %19) #7
  %.not53 = icmp eq i32 %55, 1
  br i1 %.not53, label %59, label %56

56:                                               ; preds = %.thread, %52
  %.056 = phi i32 [ -2, %.thread ], [ %55, %52 ]
  %57 = load ptr, ptr %31, align 8, !tbaa !75
  %58 = tail call i32 @dtls_free(ptr noundef %57)
  store ptr null, ptr %31, align 8, !tbaa !75
  br label %59

59:                                               ; preds = %52, %56, %32, %45
  %.051 = phi i32 [ -2, %45 ], [ %33, %32 ], [ %.056, %56 ], [ 1, %52 ]
  ret i32 %.051
}